; Function Attrs: nounwind uwtable
define internal fastcc noalias nonnull ptr @_init_l_Lean_Meta_Grind_instInhabitedIntroResult___closed__18() unnamed_addr #0 {
  %1 = load ptr, ptr @l_Lean_Meta_Grind_instInhabitedIntroResult___closed__15, align 8, !tbaa !10
  %2 = load ptr, ptr @l_Lean_Meta_Grind_instInhabitedIntroResult___closed__16, align 8, !tbaa !10
  %3 = load ptr, ptr @l_Lean_Meta_Grind_instInhabitedIntroResult___closed__17, align 8, !tbaa !10
  tail call void @lean_inc_heartbeat() #6
  %4 = tail call noalias ptr @mi_malloc_small(i64 noundef 32) #6
  %5 = icmp eq ptr %4, null
  br i1 %5, label %6, label %lean_alloc_ctor.exit

6:                                                ; preds = %0
  tail call void @lean_internal_panic_out_of_memory() #7
  unreachable

lean_alloc_ctor.exit:                             ; preds = %0
  %7 = getelementptr inbounds nuw i8, ptr %4, i64 4
  store i32 1, ptr %4, align 4, !tbaa !4
  store i32 196640, ptr %7, align 4
  %8 = getelementptr inbounds nuw i8, ptr %4, i64 8
  store ptr %1, ptr %8, align 8, !tbaa !10
  %9 = getelementptr inbounds nuw i8, ptr %4, i64 16
  store ptr %2, ptr %9, align 8, !tbaa !10
  %10 = getelementptr inbounds nuw i8, ptr %4, i64 24
  store ptr %3, ptr %10, align 8, !tbaa !10
  ret ptr %4
}